; Function Attrs: nounwind sspstrong uwtable
define internal i64 @ossl_ssl_session_set_timeout(i64 noundef %0, i64 noundef %1) #0 {
  %3 = tail call ptr @rb_check_typeddata(i64 noundef %0, ptr noundef nonnull @ossl_ssl_session_type) #4
  %.not = icmp eq ptr %3, null
  br i1 %.not, label %4, label %6

4:                                                ; preds = %2
  %5 = load i64, ptr @rb_eRuntimeError, align 8, !tbaa !6
  tail call void (i64, ptr, ...) @ossl_raise(i64 noundef %5, ptr noundef nonnull @.str.18) #5
  unreachable

6:                                                ; preds = %2
  %7 = and i64 %1, 1
  %.not.i = icmp eq i64 %7, 0
  br i1 %.not.i, label %10, label %8

8:                                                ; preds = %6
  %9 = ashr i64 %1, 1
  br label %rb_num2long_inline.exit

10:                                               ; preds = %6
  %11 = tail call i64 @rb_num2long(i64 noundef %1) #4
  br label %rb_num2long_inline.exit

rb_num2long_inline.exit:                          ; preds = %8, %10
  %.0.i = phi i64 [ %9, %8 ], [ %11, %10 ]
  %12 = tail call i64 @SSL_SESSION_set_timeout(ptr noundef nonnull %3, i64 noundef %.0.i) #4
  %13 = tail call ptr @rb_check_typeddata(i64 noundef %0, ptr noundef nonnull @ossl_ssl_session_type) #4
  %.not.i5 = icmp eq ptr %13, null
  br i1 %.not.i5, label %14, label %16

14:                                               ; preds = %rb_num2long_inline.exit
  %15 = load i64, ptr @rb_eRuntimeError, align 8, !tbaa !6
  tail call void (i64, ptr, ...) @ossl_raise(i64 noundef %15, ptr noundef nonnull @.str.18) #5
  unreachable

16:                                               ; preds = %rb_num2long_inline.exit
  %17 = tail call i64 @SSL_SESSION_get_timeout(ptr noundef nonnull %13) #4
  %18 = add i64 %17, 4611686018427387904
  %or.cond.i.i = icmp sgt i64 %18, -1
  br i1 %or.cond.i.i, label %19, label %22

19:                                               ; preds = %16
  %20 = shl nsw i64 %17, 1
  %21 = or disjoint i64 %20, 1
  br label %ossl_ssl_session_get_timeout.exit

22:                                               ; preds = %16
  %23 = tail call i64 @rb_int2big(i64 noundef %17) #4
  br label %ossl_ssl_session_get_timeout.exit

ossl_ssl_session_get_timeout.exit:                ; preds = %19, %22
  %.0.i.i = phi i64 [ %21, %19 ], [ %23, %22 ]
  ret i64 %.0.i.i
}